target datalayout = "e-m:e-p270:32:32-p271:32:32-p272:64:64-i64:64-i128:128-f80:128-n8:16:32:64-S128"
target triple = "x86_64-pc-linux-gnu"

%struct.PlanState = type { i32, ptr, ptr, ptr, ptr, ptr, ptr, ptr, ptr, ptr, ptr, ptr, ptr, ptr, ptr, ptr, ptr, ptr, i8, ptr, ptr, ptr, ptr, ptr, i8, i8, i8, i8, i8, i8, i8, i8 }
%struct.HashJoinTableData = type { i32, i32, i32, i32, i32, %union.anon, i8, ptr, i32, i32, ptr, i32, i32, i32, i32, i8, double, double, double, ptr, ptr, i64, i64, i64, i64, i64, ptr, ptr, ptr, ptr, ptr, ptr, ptr, ptr, i64 }
%union.anon = type { ptr }
%struct.ExprContext = type { i32, ptr, ptr, ptr, ptr, ptr, ptr, ptr, ptr, ptr, i64, i8, i64, i8, ptr, ptr, ptr, ptr }
%struct.HashSkewBucket = type { i32, ptr }
%struct.HashJoinTupleData = type { %union.anon.0, i32 }
%union.anon.0 = type { ptr }
%struct.HashJoinState = type { %struct.JoinState, ptr, ptr, ptr, i32, i32, i32, ptr, ptr, ptr, ptr, ptr, ptr, i32, i8, i8 }
%struct.JoinState = type { %struct.PlanState, i32, i8, ptr }
%struct.ExprState = type { i32, i8, i8, i64, ptr, ptr, ptr, ptr, ptr, i32, i32, ptr, ptr, ptr, ptr, ptr, ptr, ptr }

@CurrentMemoryContext = external global ptr, align 8

; Function Attrs: inlinehint nounwind uwtable
define internal ptr @MemoryContextSwitchTo(ptr noundef %0) #3 {
  %2 = alloca ptr, align 8
  %3 = alloca ptr, align 8
  store ptr %0, ptr %2, align 8
  call void @llvm.lifetime.start.p0(i64 8, ptr %3) #9
  %4 = load ptr, ptr @CurrentMemoryContext, align 8
  store ptr %4, ptr %3, align 8
  %5 = load ptr, ptr %2, align 8
  store ptr %5, ptr @CurrentMemoryContext, align 8
  %6 = load ptr, ptr %3, align 8
  call void @llvm.lifetime.end.p0(i64 8, ptr %3) #9
  ret ptr %6
}

; Function Attrs: inlinehint nounwind uwtable
define internal zeroext i1 @DatumGetBool(i64 noundef %0) #3 {
  %2 = alloca i64, align 8
  store i64 %0, ptr %2, align 8
  %3 = load i64, ptr %2, align 8
  %4 = icmp ne i64 %3, 0
  ret i1 %4
}

; Function Attrs: inlinehint nounwind uwtable
define internal i64 @ExecEvalExprSwitchContext(ptr noundef %0, ptr noundef %1, ptr noundef %2) #3 {
  %4 = alloca ptr, align 8
  %5 = alloca ptr, align 8
  %6 = alloca ptr, align 8
  %7 = alloca i64, align 8
  %8 = alloca ptr, align 8
  store ptr %0, ptr %4, align 8
  store ptr %1, ptr %5, align 8
  store ptr %2, ptr %6, align 8
  call void @llvm.lifetime.start.p0(i64 8, ptr %7) #9
  call void @llvm.lifetime.start.p0(i64 8, ptr %8) #9
  %9 = load ptr, ptr %5, align 8
  %10 = getelementptr inbounds nuw %struct.ExprContext, ptr %9, i32 0, i32 5
  %11 = load ptr, ptr %10, align 8
  %12 = call ptr @MemoryContextSwitchTo(ptr noundef %11)
  store ptr %12, ptr %8, align 8
  %13 = load ptr, ptr %4, align 8
  %14 = getelementptr inbounds nuw %struct.ExprState, ptr %13, i32 0, i32 6
  %15 = load ptr, ptr %14, align 8
  %16 = load ptr, ptr %4, align 8
  %17 = load ptr, ptr %5, align 8
  %18 = load ptr, ptr %6, align 8
  %19 = call i64 %15(ptr noundef %16, ptr noundef %17, ptr noundef %18)
  store i64 %19, ptr %7, align 8
  %20 = load ptr, ptr %8, align 8
  %21 = call ptr @MemoryContextSwitchTo(ptr noundef %20)
  %22 = load i64, ptr %7, align 8
  call void @llvm.lifetime.end.p0(i64 8, ptr %8) #9
  call void @llvm.lifetime.end.p0(i64 8, ptr %7) #9
  ret i64 %22
}

; Function Attrs: inlinehint nounwind uwtable
define internal zeroext i1 @ExecQual(ptr noundef %0, ptr noundef %1) #3 {
  %3 = alloca i1, align 1
  %4 = alloca ptr, align 8
  %5 = alloca ptr, align 8
  %6 = alloca i64, align 8
  %7 = alloca i8, align 1
  %8 = alloca i32, align 4
  store ptr %0, ptr %4, align 8
  store ptr %1, ptr %5, align 8
  call void @llvm.lifetime.start.p0(i64 8, ptr %6) #9
  call void @llvm.lifetime.start.p0(i64 1, ptr %7) #9
  %9 = load ptr, ptr %4, align 8
  %10 = icmp eq ptr %9, null
  br i1 %10, label %11, label %12

11:                                               ; preds = %2
  store i1 true, ptr %3, align 1
  store i32 1, ptr %8, align 4
  br label %18

12:                                               ; preds = %2
  %13 = load ptr, ptr %4, align 8
  %14 = load ptr, ptr %5, align 8
  %15 = call i64 @ExecEvalExprSwitchContext(ptr noundef %13, ptr noundef %14, ptr noundef %7)
  store i64 %15, ptr %6, align 8
  %16 = load i64, ptr %6, align 8
  %17 = call zeroext i1 @DatumGetBool(i64 noundef %16)
  store i1 %17, ptr %3, align 1
  store i32 1, ptr %8, align 4
  br label %18

18:                                               ; preds = %12, %11
  call void @llvm.lifetime.end.p0(i64 1, ptr %7) #9
  call void @llvm.lifetime.end.p0(i64 8, ptr %6) #9
  %19 = load i1, ptr %3, align 1
  ret i1 %19
}

; Function Attrs: inlinehint nounwind uwtable
define internal zeroext i1 @ExecQualAndReset(ptr noundef %0, ptr noundef %1) #3 {
  %3 = alloca ptr, align 8
  %4 = alloca ptr, align 8
  %5 = alloca i8, align 1
  store ptr %0, ptr %3, align 8
  store ptr %1, ptr %4, align 8
  call void @llvm.lifetime.start.p0(i64 1, ptr %5) #9
  %6 = load ptr, ptr %3, align 8
  %7 = load ptr, ptr %4, align 8
  %8 = call zeroext i1 @ExecQual(ptr noundef %6, ptr noundef %7)
  %9 = zext i1 %8 to i8
  store i8 %9, ptr %5, align 1
  %10 = load ptr, ptr %4, align 8
  %11 = getelementptr inbounds nuw %struct.ExprContext, ptr %10, i32 0, i32 5
  %12 = load ptr, ptr %11, align 8
  call void @MemoryContextReset(ptr noundef %12)
  %13 = load i8, ptr %5, align 1, !range !4, !noundef !5
  %14 = trunc i8 %13 to i1
  call void @llvm.lifetime.end.p0(i64 1, ptr %5) #9
  ret i1 %14
}

; Function Attrs: nounwind uwtable
define dso_local zeroext i1 @ExecScanHashBucket(ptr noundef %0, ptr noundef %1) #0 {
  %3 = alloca i1, align 1
  %4 = alloca ptr, align 8
  %5 = alloca ptr, align 8
  %6 = alloca ptr, align 8
  %7 = alloca ptr, align 8
  %8 = alloca ptr, align 8
  %9 = alloca i32, align 4
  %10 = alloca ptr, align 8
  %11 = alloca i32, align 4
  store ptr %0, ptr %4, align 8
  store ptr %1, ptr %5, align 8
  call void @llvm.lifetime.start.p0(i64 8, ptr %6) #9
  %12 = load ptr, ptr %4, align 8
  %13 = getelementptr inbounds nuw %struct.HashJoinState, ptr %12, i32 0, i32 1
  %14 = load ptr, ptr %13, align 8
  store ptr %14, ptr %6, align 8
  call void @llvm.lifetime.start.p0(i64 8, ptr %7) #9
  %15 = load ptr, ptr %4, align 8
  %16 = getelementptr inbounds nuw %struct.HashJoinState, ptr %15, i32 0, i32 3
  %17 = load ptr, ptr %16, align 8
  store ptr %17, ptr %7, align 8
  call void @llvm.lifetime.start.p0(i64 8, ptr %8) #9
  %18 = load ptr, ptr %4, align 8
  %19 = getelementptr inbounds nuw %struct.HashJoinState, ptr %18, i32 0, i32 7
  %20 = load ptr, ptr %19, align 8
  store ptr %20, ptr %8, align 8
  call void @llvm.lifetime.start.p0(i64 4, ptr %9) #9
  %21 = load ptr, ptr %4, align 8
  %22 = getelementptr inbounds nuw %struct.HashJoinState, ptr %21, i32 0, i32 4
  %23 = load i32, ptr %22, align 8
  store i32 %23, ptr %9, align 4
  %24 = load ptr, ptr %8, align 8
  %25 = icmp ne ptr %24, null
  br i1 %25, label %26, label %30

26:                                               ; preds = %2
  %27 = load ptr, ptr %8, align 8
  %28 = getelementptr inbounds nuw %struct.HashJoinTupleData, ptr %27, i32 0, i32 0
  %29 = load ptr, ptr %28, align 8
  store ptr %29, ptr %8, align 8
  br label %58

30:                                               ; preds = %2
  %31 = load ptr, ptr %4, align 8
  %32 = getelementptr inbounds nuw %struct.HashJoinState, ptr %31, i32 0, i32 6
  %33 = load i32, ptr %32, align 8
  %34 = icmp ne i32 %33, -1
  br i1 %34, label %35, label %47

35:                                               ; preds = %30
  %36 = load ptr, ptr %7, align 8
  %37 = getelementptr inbounds nuw %struct.HashJoinTableData, ptr %36, i32 0, i32 7
  %38 = load ptr, ptr %37, align 8
  %39 = load ptr, ptr %4, align 8
  %40 = getelementptr inbounds nuw %struct.HashJoinState, ptr %39, i32 0, i32 6
  %41 = load i32, ptr %40, align 8
  %42 = sext i32 %41 to i64
  %43 = getelementptr inbounds ptr, ptr %38, i64 %42
  %44 = load ptr, ptr %43, align 8
  %45 = getelementptr inbounds nuw %struct.HashSkewBucket, ptr %44, i32 0, i32 1
  %46 = load ptr, ptr %45, align 8
  store ptr %46, ptr %8, align 8
  br label %57

47:                                               ; preds = %30
  %48 = load ptr, ptr %7, align 8
  %49 = getelementptr inbounds nuw %struct.HashJoinTableData, ptr %48, i32 0, i32 5
  %50 = load ptr, ptr %49, align 8
  %51 = load ptr, ptr %4, align 8
  %52 = getelementptr inbounds nuw %struct.HashJoinState, ptr %51, i32 0, i32 5
  %53 = load i32, ptr %52, align 4
  %54 = sext i32 %53 to i64
  %55 = getelementptr inbounds ptr, ptr %50, i64 %54
  %56 = load ptr, ptr %55, align 8
  store ptr %56, ptr %8, align 8
  br label %57

57:                                               ; preds = %47, %35
  br label %58

58:                                               ; preds = %57, %26
  br label %59

59:                                               ; preds = %89, %58
  %60 = load ptr, ptr %8, align 8
  %61 = icmp ne ptr %60, null
  br i1 %61, label %62, label %93

62:                                               ; preds = %59
  %63 = load ptr, ptr %8, align 8
  %64 = getelementptr inbounds nuw %struct.HashJoinTupleData, ptr %63, i32 0, i32 1
  %65 = load i32, ptr %64, align 8
  %66 = load i32, ptr %9, align 4
  %67 = icmp eq i32 %65, %66
  br i1 %67, label %68, label %89

68:                                               ; preds = %62
  call void @llvm.lifetime.start.p0(i64 8, ptr %10) #9
  %69 = load ptr, ptr %8, align 8
  %70 = getelementptr inbounds nuw i8, ptr %69, i64 16
  %71 = load ptr, ptr %4, align 8
  %72 = getelementptr inbounds nuw %struct.HashJoinState, ptr %71, i32 0, i32 9
  %73 = load ptr, ptr %72, align 8
  %74 = call ptr @ExecStoreMinimalTuple(ptr noundef %70, ptr noundef %73, i1 noundef zeroext false)
  store ptr %74, ptr %10, align 8
  %75 = load ptr, ptr %10, align 8
  %76 = load ptr, ptr %5, align 8
  %77 = getelementptr inbounds nuw %struct.ExprContext, ptr %76, i32 0, i32 2
  store ptr %75, ptr %77, align 8
  %78 = load ptr, ptr %6, align 8
  %79 = load ptr, ptr %5, align 8
  %80 = call zeroext i1 @ExecQualAndReset(ptr noundef %78, ptr noundef %79)
  br i1 %80, label %81, label %85

81:                                               ; preds = %68
  %82 = load ptr, ptr %8, align 8
  %83 = load ptr, ptr %4, align 8
  %84 = getelementptr inbounds nuw %struct.HashJoinState, ptr %83, i32 0, i32 7
  store ptr %82, ptr %84, align 8
  store i1 true, ptr %3, align 1
  store i32 1, ptr %11, align 4
  br label %86

85:                                               ; preds = %68
  store i32 0, ptr %11, align 4
  br label %86

86:                                               ; preds = %85, %81
  call void @llvm.lifetime.end.p0(i64 8, ptr %10) #9
  %87 = load i32, ptr %11, align 4
  switch i32 %87, label %94 [
    i32 0, label %88
  ]

88:                                               ; preds = %86
  br label %89

89:                                               ; preds = %88, %62
  %90 = load ptr, ptr %8, align 8
  %91 = getelementptr inbounds nuw %struct.HashJoinTupleData, ptr %90, i32 0, i32 0
  %92 = load ptr, ptr %91, align 8
  store ptr %92, ptr %8, align 8
  br label %59, !llvm.loop !17

93:                                               ; preds = %59
  store i1 false, ptr %3, align 1
  store i32 1, ptr %11, align 4
  br label %94

94:                                               ; preds = %93, %86
  call void @llvm.lifetime.end.p0(i64 4, ptr %9) #9
  call void @llvm.lifetime.end.p0(i64 8, ptr %8) #9
  call void @llvm.lifetime.end.p0(i64 8, ptr %7) #9
  call void @llvm.lifetime.end.p0(i64 8, ptr %6) #9
  %95 = load i1, ptr %3, align 1
  ret i1 %95
}