; Function Attrs: nounwind uwtable
define dso_local noundef zeroext i1 @ExecScanHashBucket(ptr noundef captures(none) %0, ptr noundef %1) local_unnamed_addr #0 {
  %3 = alloca i8, align 1
  %4 = getelementptr inbounds nuw i8, ptr %0, i64 216
  %5 = load ptr, ptr %4, align 8
  %.fr52 = freeze ptr %5
  %6 = getelementptr inbounds nuw i8, ptr %0, i64 232
  %7 = load ptr, ptr %6, align 8
  %8 = getelementptr inbounds nuw i8, ptr %0, i64 256
  %9 = load ptr, ptr %8, align 8
  %10 = getelementptr inbounds nuw i8, ptr %0, i64 240
  %11 = load i32, ptr %10, align 8
  %.not = icmp eq ptr %9, null
  br i1 %.not, label %12, label %29

12:                                               ; preds = %2
  %13 = getelementptr inbounds nuw i8, ptr %0, i64 248
  %14 = load i32, ptr %13, align 8
  %.not29 = icmp eq i32 %14, -1
  br i1 %.not29, label %22, label %15

15:                                               ; preds = %12
  %16 = getelementptr inbounds nuw i8, ptr %7, i64 40
  %17 = load ptr, ptr %16, align 8
  %18 = sext i32 %14 to i64
  %19 = getelementptr inbounds ptr, ptr %17, i64 %18
  %20 = load ptr, ptr %19, align 8
  %21 = getelementptr inbounds nuw i8, ptr %20, i64 8
  br label %29

22:                                               ; preds = %12
  %23 = getelementptr inbounds nuw i8, ptr %7, i64 24
  %24 = load ptr, ptr %23, align 8
  %25 = getelementptr inbounds nuw i8, ptr %0, i64 244
  %26 = load i32, ptr %25, align 4
  %27 = sext i32 %26 to i64
  %28 = getelementptr inbounds ptr, ptr %24, i64 %27
  br label %29

29:                                               ; preds = %2, %15, %22
  %.025.in = phi ptr [ %21, %15 ], [ %28, %22 ], [ %9, %2 ]
  %.12641 = load ptr, ptr %.025.in, align 8
  %.not3042.not = icmp eq ptr %.12641, null
  br i1 %.not3042.not, label %.loopexit, label %.lr.ph

.lr.ph:                                           ; preds = %29
  %30 = getelementptr inbounds nuw i8, ptr %0, i64 272
  %31 = getelementptr inbounds nuw i8, ptr %1, i64 16
  %32 = icmp eq ptr %.fr52, null
  %33 = getelementptr inbounds nuw i8, ptr %1, i64 40
  %34 = getelementptr inbounds nuw i8, ptr %.fr52, i64 32
  br i1 %32, label %.lr.ph.split.us, label %.lr.ph.split

.lr.ph.split.us:                                  ; preds = %.lr.ph
  %35 = getelementptr inbounds nuw i8, ptr %.12641, i64 8
  %36 = load i32, ptr %35, align 8
  %37 = icmp eq i32 %36, %11
  br i1 %37, label %._crit_edge, label %.critedge.us

38:                                               ; preds = %.critedge.us
  %39 = getelementptr inbounds nuw i8, ptr %.126.us, i64 8
  %40 = load i32, ptr %39, align 8
  %41 = icmp eq i32 %40, %11
  br i1 %41, label %._crit_edge, label %.critedge.us, !llvm.loop !25

._crit_edge:                                      ; preds = %38, %.lr.ph.split.us
  %.12643.us.lcssa = phi ptr [ %.12641, %.lr.ph.split.us ], [ %.126.us, %38 ]
  %42 = getelementptr inbounds nuw i8, ptr %.12643.us.lcssa, i64 16
  %43 = load ptr, ptr %30, align 8
  %44 = tail call ptr @ExecStoreMinimalTuple(ptr noundef nonnull %42, ptr noundef %43, i1 noundef zeroext false) #16
  store ptr %44, ptr %31, align 8
  %45 = load ptr, ptr %33, align 8
  tail call void @MemoryContextReset(ptr noundef %45) #16
  br label %.loopexit33

.critedge.us:                                     ; preds = %.lr.ph.split.us, %38
  %.12643.us49 = phi ptr [ %.126.us, %38 ], [ %.12641, %.lr.ph.split.us ]
  %.126.us = load ptr, ptr %.12643.us49, align 8
  %.not30.us.not = icmp eq ptr %.126.us, null
  br i1 %.not30.us.not, label %.loopexit, label %38, !llvm.loop !25

.lr.ph.split:                                     ; preds = %.lr.ph, %.critedge
  %.12643 = phi ptr [ %.126, %.critedge ], [ %.12641, %.lr.ph ]
  %46 = getelementptr inbounds nuw i8, ptr %.12643, i64 8
  %47 = load i32, ptr %46, align 8
  %48 = icmp eq i32 %47, %11
  br i1 %48, label %ExecQualAndReset.exit, label %.critedge

ExecQualAndReset.exit:                            ; preds = %.lr.ph.split
  %49 = getelementptr inbounds nuw i8, ptr %.12643, i64 16
  %50 = load ptr, ptr %30, align 8
  %51 = call ptr @ExecStoreMinimalTuple(ptr noundef nonnull %49, ptr noundef %50, i1 noundef zeroext false) #16
  store ptr %51, ptr %31, align 8
  call void @llvm.lifetime.start.p0(i64 1, ptr nonnull %3) #16
  %52 = load ptr, ptr %33, align 8
  %53 = load ptr, ptr @CurrentMemoryContext, align 8
  store ptr %52, ptr @CurrentMemoryContext, align 8
  %54 = load ptr, ptr %34, align 8
  %55 = call i64 %54(ptr noundef nonnull %.fr52, ptr noundef nonnull %1, ptr noundef nonnull %3) #16
  store ptr %53, ptr @CurrentMemoryContext, align 8
  %.not32 = icmp eq i64 %55, 0
  call void @llvm.lifetime.end.p0(i64 1, ptr nonnull %3) #16
  %56 = load ptr, ptr %33, align 8
  call void @MemoryContextReset(ptr noundef %56) #16
  br i1 %.not32, label %.critedge, label %.loopexit33

.loopexit33:                                      ; preds = %ExecQualAndReset.exit, %._crit_edge
  %.12640 = phi ptr [ %.12643.us.lcssa, %._crit_edge ], [ %.12643, %ExecQualAndReset.exit ]
  store ptr %.12640, ptr %8, align 8
  br label %.loopexit

.critedge:                                        ; preds = %ExecQualAndReset.exit, %.lr.ph.split
  %.126 = load ptr, ptr %.12643, align 8
  %.not30.not = icmp eq ptr %.126, null
  br i1 %.not30.not, label %.loopexit, label %.lr.ph.split, !llvm.loop !25

.loopexit:                                        ; preds = %.critedge, %.critedge.us, %29, %.loopexit33
  %.not3036 = phi i1 [ true, %.loopexit33 ], [ false, %29 ], [ false, %.critedge.us ], [ false, %.critedge ]
  ret i1 %.not3036
}